Certificate:
    Data:
        Version: 3 (0x2)
        Serial Number: 1 (0x1)
    Signature Algorithm: sha256WithRSAEncryption
        Issuer: C=US, ST=Unset, L=Unset, O=Unset, CN=www.example.com
        Validity
            Not Before: Jul 30 15:17:59 2016 GMT
            Not After : Jul 28 15:17:59 2026 GMT
        Subject: C=US, ST=Unset, O=Unset, CN=www.example.com
        Subject Public Key Info:
            Public Key Algorithm: rsaEncryption
                Public-Key: (2048 bit)
                Modulus:
                    00:d5:81:10:b5:ff:65:1a:86:d0:3e:52:c9:d6:b1:
                    b8:3d:7a:34:4a:78:c3:c1:89:a9:85:a4:de:6b:dc:
                    5b:f6:e3:99:2e:4a:b1:32:31:25:7a:32:f0:bb:53:
                    57:aa:b6:a8:08:9e:5b:b8:19:0a:da:f9:75:7e:ad:
                    9e:8e:11:4a:80:be:e1:4f:82:6c:82:fa:96:5c:5b:
                    e8:25:03:8f:1d:14:1f:5b:d6:50:8c:3d:64:5d:0d:
                    91:65:25:1d:b8:16:cf:2d:84:84:8f:13:06:d2:4e:
                    43:dc:df:78:23:12:4c:31:3d:0b:73:ff:ce:84:44:
                    85:04:20:6c:44:5c:f7:4c:80:7d:36:50:e2:9d:dc:
                    26:b9:c6:fb:e1:8c:86:7f:f4:7d:85:95:14:51:8f:
                    4c:f8:d3:48:1d:3c:77:ba:69:ed:2a:a9:01:41:00:
                    53:68:c2:74:8c:a4:99:8e:dd:2a:74:2d:e7:7a:9f:
                    dc:3e:db:ee:33:65:67:22:6c:d3:03:a9:62:69:7d:
                    e1:d3:91:4e:50:f0:e6:8c:fd:0e:30:ef:71:46:a7:
                    60:78:42:91:0b:7e:71:02:77:61:ae:12:13:32:9f:
                    9b:f6:81:74:a0:e4:73:2f:b4:07:f0:a1:2b:86:64:
                    ab:61:a3:0e:39:5b:1a:86:8d:a1:34:cb:e3:40:be:
                    40:d5
                Exponent: 65537 (0x10001)
        X509v3 extensions:
            X509v3 Basic Constraints: 
                CA:FALSE
            X509v3 Subject Key Identifier: 
                3A:76:83:21:C4:C3:88:2C:27:14:CA:FB:76:60:69:7C:C2:86:7E:89
            X509v3 Authority Key Identifier: 
                keyid:32:CE:B1:59:FF:06:C4:6F:76:5E:47:11:71:BD:BF:DA:0D:7D:AC:B8

    Signature Algorithm: sha256WithRSAEncryption
         6a:b8:7a:af:fc:26:64:75:26:e9:ae:f4:86:18:ed:58:2a:d6:
         36:40:03:1c:de:39:08:d7:e4:04:e0:eb:90:f9:68:3a:f6:13:
         53:9b:6f:9c:c8:02:95:f6:31:54:45:e0:ba:ab:49:45:2c:2c:
         fb:5f:45:3b:b6:40:b7:09:de:c6:ac:6f:ed:8a:8f:49:e9:6c:
         1d:69:e7:4f:b8:73:ea:1b:3c:62:17:94:58:06:6d:1d:c8:35:
         d5:5c:6e:f5:a7:3f:6f:df:ef:83:6c:5f:6b:a7:d7:69:13:52:
         d6:c8:45:47:6e:bf:8e:74:52:38:f8:c4:fd:7d:3f:0c:49:16:
         9c:6b:e1:6e:ac:04:c8:a7:5a:ab:4e:66:c4:71:d9:4d:63:0a:
         55:0b:62:fd:04:34:29:92:18:f3:25:93:01:4e:e3:27:2d:47:
         02:f6:46:7e:14:1e:3b:b4:ab:68:de:46:46:51:ae:18:18:10:
         fc:18:3c:1a:a2:c7:e2:8a:08:9a:4c:cb:af:30:f7:b4:0c:40:
         75:4f:01:44:40:22:80:a4:46:17:0b:18:76:a3:05:ea:eb:75:
         e8:08:ad:44:29:de:bf:d2:68:c4:06:17:b6:8c:e3:9b:f4:bd:
         d9:5c:e2:0e:ae:be:f8:cc:96:29:c1:9c:ac:35:78:4d:de:1e:
         ca:ac:c9:b1
-----BEGIN CERTIFICATE-----
MIIDZjCCAk6gAwIBAgIBATANBgkqhkiG9w0BAQsFADBXMQswCQYDVQQGEwJVUzEO
MAwGA1UECAwFVW5zZXQxDjAMBgNVBAcMBVVuc2V0MQ4wDAYDVQQKDAVVbnNldDEY
MBYGA1UEAwwPd3d3LmV4YW1wbGUuY29tMB4XDTE2MDczMDE1MTc1OVoXDTI2MDcy
ODE1MTc1OVowRzELMAkGA1UEBhMCVVMxDjAMBgNVBAgMBVVuc2V0MQ4wDAYDVQQK
DAVVbnNldDEYMBYGA1UEAwwPd3d3LmV4YW1wbGUuY29tMIIBIjANBgkqhkiG9w0B
AQEFAAOCAQ8AMIIBCgKCAQEA1YEQtf9lGobQPlLJ1rG4PXo0SnjDwYmphaTea9xb
9uOZLkqxMjElejLwu1NXqraoCJ5buBkK2vl1fq2ejhFKgL7hT4JsgvqWXFvoJQOP
HRQfW9ZQjD1kXQ2RZSUduBbPLYSEjxMG0k5D3N94IxJMMT0Lc//OhESFBCBsRFz3
TIB9NlDindwmucb74YyGf/R9hZUUUY9M+NNIHTx3umntKqkBQQBTaMJ0jKSZjt0q
dC3nep/cPtvuM2VnImzTA6liaX3h05FOUPDmjP0OMO9xRqdgeEKRC35xAndhrhIT
Mp+b9oF0oORzL7QH8KErhmSrYaMOOVsaho2hNMvjQL5A1QIDAQABo00wSzAJBgNV
HRMEAjAAMB0GA1UdDgQWBBQ6doMhxMOILCcUyvt2YGl8woZ+iTAfBgNVHSMEGDAW
gBQyzrFZ/wbEb3ZeRxFxvb/aDX2suDANBgkqhkiG9w0BAQsFAAOCAQEAarh6r/wm
ZHUm6a70hhjtWCrWNkADHN45CNfkBODrkPloOvYTU5tvnMgClfYxVEXguqtJRSws
+19FO7ZAtwnexqxv7YqPSelsHWnnT7hz6hs8YheUWAZtHcg11Vxu9ac/b9/vg2xf
a6fXaRNS1shFR26/jnRSOPjE/X0/DEkWnGvhbqwEyKdaq05mxHHZTWMKVQti/QQ0
KZIY8yWTAU7jJy1HAvZGfhQeO7SraN5GRlGuGBgQ/Bg8GqLH4ooImkzLrzD3tAxA
dU8BREAigKRGFwsYdqMF6ut16AitRCnev9JoxAYXtozjm/S92VziDq6++MyWKcGc
rDV4Td4eyqzJsQ==
-----END CERTIFICATE-----
